target datalayout = "e-m:e-p270:32:32-p271:32:32-p272:64:64-i64:64-i128:128-f80:128-n8:16:32:64-S128"
target triple = "x86_64-pc-linux-gnu"

%struct.Gia_Man_t_ = type { ptr, ptr, i32, i32, i32, i32, ptr, ptr, i32, i32, i32, ptr, ptr, %struct.Vec_Int_t_, %struct.Vec_Int_t_, i32, i32, i32, %struct.Vec_Int_t_, ptr, ptr, ptr, i32, i32, i32, i32, ptr, ptr, ptr, ptr, ptr, i32, i32, ptr, i32, ptr, ptr, ptr, ptr, ptr, ptr, ptr, ptr, ptr, ptr, ptr, ptr, ptr, ptr, ptr, ptr, ptr, ptr, %struct.Vec_Int_t_, %struct.Vec_Int_t_, ptr, ptr, ptr, ptr, ptr, ptr, ptr, ptr, ptr, ptr, ptr, ptr, ptr, ptr, ptr, ptr, ptr, ptr, ptr, ptr, ptr, i32, float, float, ptr, ptr, i32, ptr, ptr, ptr, ptr, ptr, ptr, ptr, ptr, ptr, ptr, ptr, ptr, ptr, ptr, ptr, i64, i64, ptr, ptr, i32, i32, i32, i32, i32, i32, i32, i32, i32, i32, i32, i32, ptr, ptr, ptr, ptr, ptr, ptr, ptr, ptr, i32, i32, i32, ptr, i32, i32, ptr, ptr, ptr, ptr, ptr, ptr, i32, i32, ptr, %struct.Vec_Int_t_, %struct.Vec_Int_t_, %struct.Vec_Int_t_, ptr, ptr, ptr, i32, i32, i32, i32, ptr, ptr, ptr, ptr, ptr }
%struct.Vec_Int_t_ = type { i32, i32, ptr }
%struct.Gia_Obj_t_ = type <{ i64, i32 }>

; Function Attrs: inlinehint nounwind uwtable
define internal i32 @Gia_ObjId(ptr noundef %0, ptr noundef %1) #1 {
  %3 = alloca ptr, align 8
  %4 = alloca ptr, align 8
  store ptr %0, ptr %3, align 8, !tbaa !3
  store ptr %1, ptr %4, align 8, !tbaa !12
  %5 = load ptr, ptr %4, align 8, !tbaa !12
  %6 = load ptr, ptr %3, align 8, !tbaa !3
  %7 = getelementptr inbounds nuw %struct.Gia_Man_t_, ptr %6, i32 0, i32 6
  %8 = load ptr, ptr %7, align 8, !tbaa !46
  %9 = ptrtoint ptr %5 to i64
  %10 = ptrtoint ptr %8 to i64
  %11 = sub i64 %9, %10
  %12 = sdiv exact i64 %11, 12
  %13 = trunc i64 %12 to i32
  ret i32 %13
}

; Function Attrs: inlinehint nounwind uwtable
define internal i32 @Abc_LitIsCompl(i32 noundef %0) #1 {
  %2 = alloca i32, align 4
  store i32 %0, ptr %2, align 4, !tbaa !8
  %3 = load i32, ptr %2, align 4, !tbaa !8
  %4 = and i32 %3, 1
  ret i32 %4
}

; Function Attrs: inlinehint nounwind uwtable
define internal i32 @Abc_Lit2Var(i32 noundef %0) #1 {
  %2 = alloca i32, align 4
  store i32 %0, ptr %2, align 4, !tbaa !8
  %3 = load i32, ptr %2, align 4, !tbaa !8
  %4 = ashr i32 %3, 1
  ret i32 %4
}

; Function Attrs: inlinehint nounwind uwtable
define internal i32 @Gia_ObjFaninLit2p(ptr noundef %0, ptr noundef %1) #1 {
  %3 = alloca ptr, align 8
  %4 = alloca ptr, align 8
  store ptr %0, ptr %3, align 8, !tbaa !3
  store ptr %1, ptr %4, align 8, !tbaa !12
  %5 = load ptr, ptr %3, align 8, !tbaa !3
  %6 = getelementptr inbounds nuw %struct.Gia_Man_t_, ptr %5, i32 0, i32 7
  %7 = load ptr, ptr %6, align 8, !tbaa !14
  %8 = icmp ne ptr %7, null
  br i1 %8, label %9, label %30

9:                                                ; preds = %2
  %10 = load ptr, ptr %3, align 8, !tbaa !3
  %11 = getelementptr inbounds nuw %struct.Gia_Man_t_, ptr %10, i32 0, i32 7
  %12 = load ptr, ptr %11, align 8, !tbaa !14
  %13 = load ptr, ptr %3, align 8, !tbaa !3
  %14 = load ptr, ptr %4, align 8, !tbaa !12
  %15 = call i32 @Gia_ObjId(ptr noundef %13, ptr noundef %14)
  %16 = sext i32 %15 to i64
  %17 = getelementptr inbounds i32, ptr %12, i64 %16
  %18 = load i32, ptr %17, align 4, !tbaa !8
  %19 = icmp ne i32 %18, 0
  br i1 %19, label %20, label %30

20:                                               ; preds = %9
  %21 = load ptr, ptr %3, align 8, !tbaa !3
  %22 = getelementptr inbounds nuw %struct.Gia_Man_t_, ptr %21, i32 0, i32 7
  %23 = load ptr, ptr %22, align 8, !tbaa !14
  %24 = load ptr, ptr %3, align 8, !tbaa !3
  %25 = load ptr, ptr %4, align 8, !tbaa !12
  %26 = call i32 @Gia_ObjId(ptr noundef %24, ptr noundef %25)
  %27 = sext i32 %26 to i64
  %28 = getelementptr inbounds i32, ptr %23, i64 %27
  %29 = load i32, ptr %28, align 4, !tbaa !8
  br label %31

30:                                               ; preds = %9, %2
  br label %31

31:                                               ; preds = %30, %20
  %32 = phi i32 [ %29, %20 ], [ -1, %30 ]
  ret i32 %32
}

; Function Attrs: inlinehint nounwind uwtable
define internal ptr @Vec_IntEntryP(ptr noundef %0, i32 noundef %1) #1 {
  %3 = alloca ptr, align 8
  %4 = alloca i32, align 4
  store ptr %0, ptr %3, align 8, !tbaa !35
  store i32 %1, ptr %4, align 4, !tbaa !8
  %5 = load ptr, ptr %3, align 8, !tbaa !35
  %6 = getelementptr inbounds nuw %struct.Vec_Int_t_, ptr %5, i32 0, i32 2
  %7 = load ptr, ptr %6, align 8, !tbaa !36
  %8 = load i32, ptr %4, align 4, !tbaa !8
  %9 = sext i32 %8 to i64
  %10 = getelementptr inbounds i32, ptr %7, i64 %9
  ret ptr %10
}

; Function Attrs: inlinehint nounwind uwtable
define internal i32 @Gia_ManHashOne(i32 noundef %0, i32 noundef %1, i32 noundef %2, i32 noundef %3) #1 {
  %5 = alloca i32, align 4
  %6 = alloca i32, align 4
  %7 = alloca i32, align 4
  %8 = alloca i32, align 4
  %9 = alloca i32, align 4
  store i32 %0, ptr %5, align 4, !tbaa !8
  store i32 %1, ptr %6, align 4, !tbaa !8
  store i32 %2, ptr %7, align 4, !tbaa !8
  store i32 %3, ptr %8, align 4, !tbaa !8
  call void @llvm.lifetime.start.p0(i64 4, ptr %9) #12
  %10 = load i32, ptr %7, align 4, !tbaa !8
  %11 = mul nsw i32 %10, 2011
  store i32 %11, ptr %9, align 4, !tbaa !8
  %12 = load i32, ptr %5, align 4, !tbaa !8
  %13 = call i32 @Abc_Lit2Var(i32 noundef %12)
  %14 = mul nsw i32 %13, 7937
  %15 = load i32, ptr %9, align 4, !tbaa !8
  %16 = add i32 %15, %14
  store i32 %16, ptr %9, align 4, !tbaa !8
  %17 = load i32, ptr %6, align 4, !tbaa !8
  %18 = call i32 @Abc_Lit2Var(i32 noundef %17)
  %19 = mul nsw i32 %18, 2971
  %20 = load i32, ptr %9, align 4, !tbaa !8
  %21 = add i32 %20, %19
  store i32 %21, ptr %9, align 4, !tbaa !8
  %22 = load i32, ptr %5, align 4, !tbaa !8
  %23 = call i32 @Abc_LitIsCompl(i32 noundef %22)
  %24 = mul nsw i32 %23, 911
  %25 = load i32, ptr %9, align 4, !tbaa !8
  %26 = add i32 %25, %24
  store i32 %26, ptr %9, align 4, !tbaa !8
  %27 = load i32, ptr %6, align 4, !tbaa !8
  %28 = call i32 @Abc_LitIsCompl(i32 noundef %27)
  %29 = mul nsw i32 %28, 353
  %30 = load i32, ptr %9, align 4, !tbaa !8
  %31 = add i32 %30, %29
  store i32 %31, ptr %9, align 4, !tbaa !8
  %32 = load i32, ptr %9, align 4, !tbaa !8
  %33 = load i32, ptr %8, align 4, !tbaa !8
  %34 = urem i32 %32, %33
  call void @llvm.lifetime.end.p0(i64 4, ptr %9) #12
  ret i32 %34
}

; Function Attrs: inlinehint nounwind uwtable
define internal i32 @Vec_IntSize(ptr noundef %0) #1 {
  %2 = alloca ptr, align 8
  store ptr %0, ptr %2, align 8, !tbaa !35
  %3 = load ptr, ptr %2, align 8, !tbaa !35
  %4 = getelementptr inbounds nuw %struct.Vec_Int_t_, ptr %3, i32 0, i32 1
  %5 = load i32, ptr %4, align 4, !tbaa !38
  ret i32 %5
}

; Function Attrs: inlinehint nounwind uwtable
define internal i32 @Gia_ObjFaninC1(ptr noundef %0) #1 {
  %2 = alloca ptr, align 8
  store ptr %0, ptr %2, align 8, !tbaa !12
  %3 = load ptr, ptr %2, align 8, !tbaa !12
  %4 = load i64, ptr %3, align 4
  %5 = lshr i64 %4, 61
  %6 = and i64 %5, 1
  %7 = trunc i64 %6 to i32
  ret i32 %7
}

; Function Attrs: inlinehint nounwind uwtable
define internal i32 @Gia_ObjFaninId1(ptr noundef %0, i32 noundef %1) #1 {
  %3 = alloca ptr, align 8
  %4 = alloca i32, align 4
  store ptr %0, ptr %3, align 8, !tbaa !12
  store i32 %1, ptr %4, align 4, !tbaa !8
  %5 = load i32, ptr %4, align 4, !tbaa !8
  %6 = load ptr, ptr %3, align 8, !tbaa !12
  %7 = load i64, ptr %6, align 4
  %8 = lshr i64 %7, 32
  %9 = and i64 %8, 536870911
  %10 = trunc i64 %9 to i32
  %11 = sub nsw i32 %5, %10
  ret i32 %11
}

; Function Attrs: inlinehint nounwind uwtable
define internal i32 @Abc_Var2Lit(i32 noundef %0, i32 noundef %1) #1 {
  %3 = alloca i32, align 4
  %4 = alloca i32, align 4
  store i32 %0, ptr %3, align 4, !tbaa !8
  store i32 %1, ptr %4, align 4, !tbaa !8
  %5 = load i32, ptr %3, align 4, !tbaa !8
  %6 = load i32, ptr %3, align 4, !tbaa !8
  %7 = add nsw i32 %5, %6
  %8 = load i32, ptr %4, align 4, !tbaa !8
  %9 = add nsw i32 %7, %8
  ret i32 %9
}

; Function Attrs: inlinehint nounwind uwtable
define internal i32 @Gia_ObjFaninC0(ptr noundef %0) #1 {
  %2 = alloca ptr, align 8
  store ptr %0, ptr %2, align 8, !tbaa !12
  %3 = load ptr, ptr %2, align 8, !tbaa !12
  %4 = load i64, ptr %3, align 4
  %5 = lshr i64 %4, 29
  %6 = and i64 %5, 1
  %7 = trunc i64 %6 to i32
  ret i32 %7
}

; Function Attrs: inlinehint nounwind uwtable
define internal i32 @Gia_ObjFaninId0(ptr noundef %0, i32 noundef %1) #1 {
  %3 = alloca ptr, align 8
  %4 = alloca i32, align 4
  store ptr %0, ptr %3, align 8, !tbaa !12
  store i32 %1, ptr %4, align 4, !tbaa !8
  %5 = load i32, ptr %4, align 4, !tbaa !8
  %6 = load ptr, ptr %3, align 8, !tbaa !12
  %7 = load i64, ptr %6, align 4
  %8 = and i64 %7, 536870911
  %9 = trunc i64 %8 to i32
  %10 = sub nsw i32 %5, %9
  ret i32 %10
}

; Function Attrs: inlinehint nounwind uwtable
define internal ptr @Gia_ManHashFind(ptr noundef %0, i32 noundef %1, i32 noundef %2, i32 noundef %3) #1 {
  %5 = alloca ptr, align 8
  %6 = alloca i32, align 4
  %7 = alloca i32, align 4
  %8 = alloca i32, align 4
  %9 = alloca i32, align 4
  %10 = alloca ptr, align 8
  %11 = alloca ptr, align 8
  %12 = alloca i32, align 4
  store ptr %0, ptr %5, align 8, !tbaa !3
  store i32 %1, ptr %6, align 4, !tbaa !8
  store i32 %2, ptr %7, align 4, !tbaa !8
  store i32 %3, ptr %8, align 4, !tbaa !8
  call void @llvm.lifetime.start.p0(i64 4, ptr %9) #12
  call void @llvm.lifetime.start.p0(i64 8, ptr %10) #12
  %13 = load ptr, ptr %5, align 8, !tbaa !3
  %14 = getelementptr inbounds nuw %struct.Gia_Man_t_, ptr %13, i32 0, i32 14
  %15 = load i32, ptr %6, align 4, !tbaa !8
  %16 = load i32, ptr %7, align 4, !tbaa !8
  %17 = load i32, ptr %8, align 4, !tbaa !8
  %18 = load ptr, ptr %5, align 8, !tbaa !3
  %19 = getelementptr inbounds nuw %struct.Gia_Man_t_, ptr %18, i32 0, i32 14
  %20 = call i32 @Vec_IntSize(ptr noundef %19)
  %21 = call i32 @Gia_ManHashOne(i32 noundef %15, i32 noundef %16, i32 noundef %17, i32 noundef %20)
  %22 = call ptr @Vec_IntEntryP(ptr noundef %14, i32 noundef %21)
  store ptr %22, ptr %10, align 8, !tbaa !10
  br label %23

23:                                               ; preds = %58, %4
  %24 = load ptr, ptr %10, align 8, !tbaa !10
  %25 = load i32, ptr %24, align 4, !tbaa !8
  store i32 %25, ptr %9, align 4, !tbaa !8
  %26 = icmp ne i32 %25, 0
  br i1 %26, label %27, label %63

27:                                               ; preds = %23
  call void @llvm.lifetime.start.p0(i64 8, ptr %11) #12
  %28 = load ptr, ptr %5, align 8, !tbaa !3
  %29 = load i32, ptr %9, align 4, !tbaa !8
  %30 = call ptr @Gia_ManObj(ptr noundef %28, i32 noundef %29)
  store ptr %30, ptr %11, align 8, !tbaa !12
  %31 = load ptr, ptr %11, align 8, !tbaa !12
  %32 = load i32, ptr %9, align 4, !tbaa !8
  %33 = call i32 @Gia_ObjFaninLit0(ptr noundef %31, i32 noundef %32)
  %34 = load i32, ptr %6, align 4, !tbaa !8
  %35 = icmp eq i32 %33, %34
  br i1 %35, label %36, label %54

36:                                               ; preds = %27
  %37 = load ptr, ptr %11, align 8, !tbaa !12
  %38 = load i32, ptr %9, align 4, !tbaa !8
  %39 = call i32 @Gia_ObjFaninLit1(ptr noundef %37, i32 noundef %38)
  %40 = load i32, ptr %7, align 4, !tbaa !8
  %41 = icmp eq i32 %39, %40
  br i1 %41, label %42, label %54

42:                                               ; preds = %36
  %43 = load ptr, ptr %5, align 8, !tbaa !3
  %44 = getelementptr inbounds nuw %struct.Gia_Man_t_, ptr %43, i32 0, i32 7
  %45 = load ptr, ptr %44, align 8, !tbaa !14
  %46 = icmp eq ptr %45, null
  br i1 %46, label %53, label %47

47:                                               ; preds = %42
  %48 = load ptr, ptr %5, align 8, !tbaa !3
  %49 = load ptr, ptr %11, align 8, !tbaa !12
  %50 = call i32 @Gia_ObjFaninLit2p(ptr noundef %48, ptr noundef %49)
  %51 = load i32, ptr %8, align 4, !tbaa !8
  %52 = icmp eq i32 %50, %51
  br i1 %52, label %53, label %54

53:                                               ; preds = %47, %42
  store i32 2, ptr %12, align 4
  br label %55

54:                                               ; preds = %47, %36, %27
  store i32 0, ptr %12, align 4
  br label %55

55:                                               ; preds = %54, %53
  call void @llvm.lifetime.end.p0(i64 8, ptr %11) #12
  %56 = load i32, ptr %12, align 4
  switch i32 %56, label %65 [
    i32 0, label %57
    i32 2, label %63
  ]

57:                                               ; preds = %55
  br label %58

58:                                               ; preds = %57
  %59 = load ptr, ptr %5, align 8, !tbaa !3
  %60 = getelementptr inbounds nuw %struct.Gia_Man_t_, ptr %59, i32 0, i32 13
  %61 = load i32, ptr %9, align 4, !tbaa !8
  %62 = call ptr @Vec_IntEntryP(ptr noundef %60, i32 noundef %61)
  store ptr %62, ptr %10, align 8, !tbaa !10
  br label %23, !llvm.loop !32

63:                                               ; preds = %55, %23
  %64 = load ptr, ptr %10, align 8, !tbaa !10
  store i32 1, ptr %12, align 4
  call void @llvm.lifetime.end.p0(i64 8, ptr %10) #12
  call void @llvm.lifetime.end.p0(i64 4, ptr %9) #12
  ret ptr %64

65:                                               ; preds = %55
  unreachable
}

; Function Attrs: inlinehint nounwind uwtable
define internal i32 @Gia_ObjFaninLit2(ptr noundef %0, i32 noundef %1) #1 {
  %3 = alloca ptr, align 8
  %4 = alloca i32, align 4
  store ptr %0, ptr %3, align 8, !tbaa !3
  store i32 %1, ptr %4, align 4, !tbaa !8
  %5 = load ptr, ptr %3, align 8, !tbaa !3
  %6 = getelementptr inbounds nuw %struct.Gia_Man_t_, ptr %5, i32 0, i32 7
  %7 = load ptr, ptr %6, align 8, !tbaa !14
  %8 = icmp ne ptr %7, null
  br i1 %8, label %9, label %26

9:                                                ; preds = %2
  %10 = load ptr, ptr %3, align 8, !tbaa !3
  %11 = getelementptr inbounds nuw %struct.Gia_Man_t_, ptr %10, i32 0, i32 7
  %12 = load ptr, ptr %11, align 8, !tbaa !14
  %13 = load i32, ptr %4, align 4, !tbaa !8
  %14 = sext i32 %13 to i64
  %15 = getelementptr inbounds i32, ptr %12, i64 %14
  %16 = load i32, ptr %15, align 4, !tbaa !8
  %17 = icmp ne i32 %16, 0
  br i1 %17, label %18, label %26

18:                                               ; preds = %9
  %19 = load ptr, ptr %3, align 8, !tbaa !3
  %20 = getelementptr inbounds nuw %struct.Gia_Man_t_, ptr %19, i32 0, i32 7
  %21 = load ptr, ptr %20, align 8, !tbaa !14
  %22 = load i32, ptr %4, align 4, !tbaa !8
  %23 = sext i32 %22 to i64
  %24 = getelementptr inbounds i32, ptr %21, i64 %23
  %25 = load i32, ptr %24, align 4, !tbaa !8
  br label %27

26:                                               ; preds = %9, %2
  br label %27

27:                                               ; preds = %26, %18
  %28 = phi i32 [ %25, %18 ], [ -1, %26 ]
  ret i32 %28
}

; Function Attrs: inlinehint nounwind uwtable
define internal i32 @Gia_ObjFaninLit1(ptr noundef %0, i32 noundef %1) #1 {
  %3 = alloca ptr, align 8
  %4 = alloca i32, align 4
  store ptr %0, ptr %3, align 8, !tbaa !12
  store i32 %1, ptr %4, align 4, !tbaa !8
  %5 = load ptr, ptr %3, align 8, !tbaa !12
  %6 = load i32, ptr %4, align 4, !tbaa !8
  %7 = call i32 @Gia_ObjFaninId1(ptr noundef %5, i32 noundef %6)
  %8 = load ptr, ptr %3, align 8, !tbaa !12
  %9 = call i32 @Gia_ObjFaninC1(ptr noundef %8)
  %10 = call i32 @Abc_Var2Lit(i32 noundef %7, i32 noundef %9)
  ret i32 %10
}

; Function Attrs: inlinehint nounwind uwtable
define internal i32 @Gia_ObjFaninLit0(ptr noundef %0, i32 noundef %1) #1 {
  %3 = alloca ptr, align 8
  %4 = alloca i32, align 4
  store ptr %0, ptr %3, align 8, !tbaa !12
  store i32 %1, ptr %4, align 4, !tbaa !8
  %5 = load ptr, ptr %3, align 8, !tbaa !12
  %6 = load i32, ptr %4, align 4, !tbaa !8
  %7 = call i32 @Gia_ObjFaninId0(ptr noundef %5, i32 noundef %6)
  %8 = load ptr, ptr %3, align 8, !tbaa !12
  %9 = call i32 @Gia_ObjFaninC0(ptr noundef %8)
  %10 = call i32 @Abc_Var2Lit(i32 noundef %7, i32 noundef %9)
  ret i32 %10
}

; Function Attrs: inlinehint nounwind uwtable
define internal i32 @Gia_ObjIsAnd(ptr noundef %0) #1 {
  %2 = alloca ptr, align 8
  store ptr %0, ptr %2, align 8, !tbaa !12
  %3 = load ptr, ptr %2, align 8, !tbaa !12
  %4 = load i64, ptr %3, align 4
  %5 = lshr i64 %4, 31
  %6 = and i64 %5, 1
  %7 = trunc i64 %6 to i32
  %8 = icmp ne i32 %7, 0
  br i1 %8, label %15, label %9

9:                                                ; preds = %1
  %10 = load ptr, ptr %2, align 8, !tbaa !12
  %11 = load i64, ptr %10, align 4
  %12 = and i64 %11, 536870911
  %13 = trunc i64 %12 to i32
  %14 = icmp ne i32 %13, 536870911
  br label %15

15:                                               ; preds = %9, %1
  %16 = phi i1 [ false, %1 ], [ %14, %9 ]
  %17 = zext i1 %16 to i32
  ret i32 %17
}

; Function Attrs: inlinehint nounwind uwtable
define internal ptr @Gia_ManObj(ptr noundef %0, i32 noundef %1) #1 {
  %3 = alloca ptr, align 8
  %4 = alloca i32, align 4
  store ptr %0, ptr %3, align 8, !tbaa !3
  store i32 %1, ptr %4, align 4, !tbaa !8
  %5 = load ptr, ptr %3, align 8, !tbaa !3
  %6 = getelementptr inbounds nuw %struct.Gia_Man_t_, ptr %5, i32 0, i32 6
  %7 = load ptr, ptr %6, align 8, !tbaa !46
  %8 = load i32, ptr %4, align 4, !tbaa !8
  %9 = sext i32 %8 to i64
  %10 = getelementptr inbounds %struct.Gia_Obj_t_, ptr %7, i64 %9
  ret ptr %10
}

; Function Attrs: nounwind uwtable
define void @Gia_ManHashStart(ptr noundef %0) #0 {
  %2 = alloca ptr, align 8
  %3 = alloca ptr, align 8
  %4 = alloca ptr, align 8
  %5 = alloca i32, align 4
  store ptr %0, ptr %2, align 8, !tbaa !3
  call void @llvm.lifetime.start.p0(i64 8, ptr %3) #12
  call void @llvm.lifetime.start.p0(i64 8, ptr %4) #12
  call void @llvm.lifetime.start.p0(i64 4, ptr %5) #12
  %6 = load ptr, ptr %2, align 8, !tbaa !3
  call void @Gia_ManHashAlloc(ptr noundef %6)
  store i32 0, ptr %5, align 4, !tbaa !8
  br label %7

7:                                                ; preds = %40, %1
  %8 = load i32, ptr %5, align 4, !tbaa !8
  %9 = load ptr, ptr %2, align 8, !tbaa !3
  %10 = getelementptr inbounds nuw %struct.Gia_Man_t_, ptr %9, i32 0, i32 4
  %11 = load i32, ptr %10, align 8, !tbaa !41
  %12 = icmp slt i32 %8, %11
  br i1 %12, label %13, label %18

13:                                               ; preds = %7
  %14 = load ptr, ptr %2, align 8, !tbaa !3
  %15 = load i32, ptr %5, align 4, !tbaa !8
  %16 = call ptr @Gia_ManObj(ptr noundef %14, i32 noundef %15)
  store ptr %16, ptr %3, align 8, !tbaa !12
  %17 = icmp ne ptr %16, null
  br label %18

18:                                               ; preds = %13, %7
  %19 = phi i1 [ false, %7 ], [ %17, %13 ]
  br i1 %19, label %20, label %43

20:                                               ; preds = %18
  %21 = load ptr, ptr %3, align 8, !tbaa !12
  %22 = call i32 @Gia_ObjIsAnd(ptr noundef %21)
  %23 = icmp ne i32 %22, 0
  br i1 %23, label %25, label %24

24:                                               ; preds = %20
  br label %39

25:                                               ; preds = %20
  %26 = load ptr, ptr %2, align 8, !tbaa !3
  %27 = load ptr, ptr %3, align 8, !tbaa !12
  %28 = load i32, ptr %5, align 4, !tbaa !8
  %29 = call i32 @Gia_ObjFaninLit0(ptr noundef %27, i32 noundef %28)
  %30 = load ptr, ptr %3, align 8, !tbaa !12
  %31 = load i32, ptr %5, align 4, !tbaa !8
  %32 = call i32 @Gia_ObjFaninLit1(ptr noundef %30, i32 noundef %31)
  %33 = load ptr, ptr %2, align 8, !tbaa !3
  %34 = load i32, ptr %5, align 4, !tbaa !8
  %35 = call i32 @Gia_ObjFaninLit2(ptr noundef %33, i32 noundef %34)
  %36 = call ptr @Gia_ManHashFind(ptr noundef %26, i32 noundef %29, i32 noundef %32, i32 noundef %35)
  store ptr %36, ptr %4, align 8, !tbaa !10
  %37 = load i32, ptr %5, align 4, !tbaa !8
  %38 = load ptr, ptr %4, align 8, !tbaa !10
  store i32 %37, ptr %38, align 4, !tbaa !8
  br label %39

39:                                               ; preds = %25, %24
  br label %40

40:                                               ; preds = %39
  %41 = load i32, ptr %5, align 4, !tbaa !8
  %42 = add nsw i32 %41, 1
  store i32 %42, ptr %5, align 4, !tbaa !8
  br label %7, !llvm.loop !45

43:                                               ; preds = %18
  call void @llvm.lifetime.end.p0(i64 4, ptr %5) #12
  call void @llvm.lifetime.end.p0(i64 8, ptr %4) #12
  call void @llvm.lifetime.end.p0(i64 8, ptr %3) #12
  ret void
}