; Function Attrs: nounwind uwtable
define void @Gia_ManHashStart(ptr noundef captures(none) %0) local_unnamed_addr #2 {
  tail call void @Gia_ManHashAlloc(ptr noundef %0)
  %2 = getelementptr inbounds nuw i8, ptr %0, i64 24
  %3 = load i32, ptr %2, align 8, !tbaa !34
  %4 = icmp sgt i32 %3, 0
  br i1 %4, label %.lr.ph, label %.critedge

.lr.ph:                                           ; preds = %1
  %5 = getelementptr i8, ptr %0, i64 32
  %.val = load ptr, ptr %5, align 8, !tbaa !12
  %.not = icmp eq ptr %.val, null
  %6 = getelementptr i8, ptr %0, i64 40
  %7 = getelementptr i8, ptr %0, i64 100
  %8 = getelementptr i8, ptr %0, i64 104
  %9 = getelementptr i8, ptr %0, i64 88
  br i1 %.not, label %.critedge, label %.lr.ph.split

.lr.ph.split:                                     ; preds = %.lr.ph, %106
  %10 = phi i32 [ %107, %106 ], [ %3, %.lr.ph ]
  %indvars.iv = phi i64 [ %indvars.iv.next, %106 ], [ 0, %.lr.ph ]
  %11 = getelementptr inbounds nuw %struct.Gia_Obj_t_, ptr %.val, i64 %indvars.iv
  %.val19 = load i64, ptr %11, align 4
  %12 = and i64 %.val19, 2147483648
  %.not.i = icmp ne i64 %12, 0
  %13 = and i64 %.val19, 536870911
  %14 = icmp eq i64 %13, 536870911
  %narrow.i.not = or i1 %.not.i, %14
  br i1 %narrow.i.not, label %106, label %15

15:                                               ; preds = %.lr.ph.split
  %16 = trunc i64 %.val19 to i32
  %17 = and i32 %16, 536870911
  %18 = trunc nuw nsw i64 %indvars.iv to i32
  %19 = sub nsw i32 %18, %17
  %20 = lshr i32 %16, 29
  %21 = and i32 %20, 1
  %22 = shl nsw i32 %19, 1
  %23 = or disjoint i32 %22, %21
  %24 = lshr i64 %.val19, 32
  %25 = trunc nuw i64 %24 to i32
  %26 = and i32 %25, 536870911
  %27 = sub nsw i32 %18, %26
  %28 = lshr i64 %.val19, 61
  %29 = trunc nuw nsw i64 %28 to i32
  %30 = and i32 %29, 1
  %31 = shl nsw i32 %27, 1
  %32 = or disjoint i32 %31, %30
  %.val20 = load ptr, ptr %6, align 8, !tbaa !31
  %.not.i21 = icmp eq ptr %.val20, null
  br i1 %.not.i21, label %Gia_ObjFaninLit2.exit, label %33

33:                                               ; preds = %15
  %34 = getelementptr inbounds nuw i32, ptr %.val20, i64 %indvars.iv
  %35 = load i32, ptr %34, align 4, !tbaa !11
  %.not5.i = icmp eq i32 %35, 0
  %spec.select.i = select i1 %.not5.i, i32 -1, i32 %35
  br label %Gia_ObjFaninLit2.exit

Gia_ObjFaninLit2.exit:                            ; preds = %15, %33
  %36 = phi i32 [ -1, %15 ], [ %spec.select.i, %33 ]
  %.val.i = load i32, ptr %7, align 4, !tbaa !3
  %37 = mul nsw i32 %36, 2011
  %38 = mul nsw i32 %19, 7937
  %39 = mul nsw i32 %27, 2971
  %40 = trunc i32 %20 to i1
  %41 = select i1 %40, i32 911, i32 0
  %42 = trunc i64 %28 to i1
  %43 = select i1 %42, i32 353, i32 0
  %44 = add i32 %38, %43
  %45 = add i32 %44, %41
  %46 = add i32 %45, %39
  %47 = add i32 %46, %37
  %48 = urem i32 %47, %.val.i
  %.val23.i = load ptr, ptr %8, align 8, !tbaa !10
  %49 = sext i32 %48 to i64
  %50 = getelementptr inbounds i32, ptr %.val23.i, i64 %49
  %51 = load i32, ptr %50, align 4, !tbaa !11
  %.not30.i = icmp eq i32 %51, 0
  br i1 %.not30.i, label %Gia_ManHashFind.exit, label %.lr.ph.i

.lr.ph.i:                                         ; preds = %Gia_ObjFaninLit2.exit
  br i1 %.not.i21, label %.lr.ph.i.split.us, label %.lr.ph.i.split

.lr.ph.i.split.us:                                ; preds = %.lr.ph.i, %74
  %52 = phi i32 [ %76, %74 ], [ %51, %.lr.ph.i ]
  %.02131.i.us = phi ptr [ %75, %74 ], [ %50, %.lr.ph.i ]
  %53 = sext i32 %52 to i64
  %54 = getelementptr inbounds %struct.Gia_Obj_t_, ptr %.val, i64 %53
  %.val26.i.us = load i64, ptr %54, align 4
  %55 = trunc i64 %.val26.i.us to i32
  %56 = and i32 %55, 536870911
  %57 = sub nsw i32 %52, %56
  %58 = lshr i32 %55, 29
  %59 = and i32 %58, 1
  %60 = shl nsw i32 %57, 1
  %61 = or disjoint i32 %60, %59
  %62 = icmp eq i32 %61, %23
  br i1 %62, label %63, label %74

63:                                               ; preds = %.lr.ph.i.split.us
  %64 = lshr i64 %.val26.i.us, 32
  %65 = trunc nuw i64 %64 to i32
  %66 = and i32 %65, 536870911
  %67 = sub nsw i32 %52, %66
  %68 = lshr i64 %.val26.i.us, 61
  %69 = trunc nuw nsw i64 %68 to i32
  %70 = and i32 %69, 1
  %71 = shl nsw i32 %67, 1
  %72 = or disjoint i32 %71, %70
  %73 = icmp eq i32 %72, %32
  br i1 %73, label %Gia_ManHashFind.exit, label %74

74:                                               ; preds = %63, %.lr.ph.i.split.us
  %.val24.i.us = load ptr, ptr %9, align 8, !tbaa !10
  %75 = getelementptr inbounds i32, ptr %.val24.i.us, i64 %53
  %76 = load i32, ptr %75, align 4, !tbaa !11
  %.not.i22.us = icmp eq i32 %76, 0
  br i1 %.not.i22.us, label %Gia_ManHashFind.exit, label %.lr.ph.i.split.us, !llvm.loop !32

.lr.ph.i.split:                                   ; preds = %.lr.ph.i, %103
  %77 = phi i32 [ %105, %103 ], [ %51, %.lr.ph.i ]
  %.02131.i = phi ptr [ %104, %103 ], [ %50, %.lr.ph.i ]
  %78 = sext i32 %77 to i64
  %79 = getelementptr inbounds %struct.Gia_Obj_t_, ptr %.val, i64 %78
  %.val26.i = load i64, ptr %79, align 4
  %80 = trunc i64 %.val26.i to i32
  %81 = and i32 %80, 536870911
  %82 = sub nsw i32 %77, %81
  %83 = lshr i32 %80, 29
  %84 = and i32 %83, 1
  %85 = shl nsw i32 %82, 1
  %86 = or disjoint i32 %85, %84
  %87 = icmp eq i32 %86, %23
  br i1 %87, label %88, label %103

88:                                               ; preds = %.lr.ph.i.split
  %89 = lshr i64 %.val26.i, 32
  %90 = trunc nuw i64 %89 to i32
  %91 = and i32 %90, 536870911
  %92 = sub nsw i32 %77, %91
  %93 = lshr i64 %.val26.i, 61
  %94 = trunc nuw nsw i64 %93 to i32
  %95 = and i32 %94, 1
  %96 = shl nsw i32 %92, 1
  %97 = or disjoint i32 %96, %95
  %98 = icmp eq i32 %97, %32
  br i1 %98, label %Gia_ObjFaninLit2p.exit.i, label %103

Gia_ObjFaninLit2p.exit.i:                         ; preds = %88
  %99 = shl nsw i64 %78, 2
  %100 = getelementptr inbounds i8, ptr %.val20, i64 %99
  %101 = load i32, ptr %100, align 4, !tbaa !11
  %.not7.i.i = icmp eq i32 %101, 0
  %spec.select.i.i = select i1 %.not7.i.i, i32 -1, i32 %101
  %102 = icmp eq i32 %spec.select.i.i, %36
  br i1 %102, label %Gia_ManHashFind.exit, label %103

103:                                              ; preds = %Gia_ObjFaninLit2p.exit.i, %88, %.lr.ph.i.split
  %.val24.i = load ptr, ptr %9, align 8, !tbaa !10
  %104 = getelementptr inbounds i32, ptr %.val24.i, i64 %78
  %105 = load i32, ptr %104, align 4, !tbaa !11
  %.not.i22 = icmp eq i32 %105, 0
  br i1 %.not.i22, label %Gia_ManHashFind.exit, label %.lr.ph.i.split, !llvm.loop !32

Gia_ManHashFind.exit:                             ; preds = %103, %Gia_ObjFaninLit2p.exit.i, %74, %63, %Gia_ObjFaninLit2.exit
  %.021.lcssa.i = phi ptr [ %50, %Gia_ObjFaninLit2.exit ], [ %.02131.i.us, %63 ], [ %75, %74 ], [ %104, %103 ], [ %.02131.i, %Gia_ObjFaninLit2p.exit.i ]
  store i32 %18, ptr %.021.lcssa.i, align 4, !tbaa !11
  %.pre = load i32, ptr %2, align 8, !tbaa !34
  br label %106

106:                                              ; preds = %Gia_ManHashFind.exit, %.lr.ph.split
  %107 = phi i32 [ %.pre, %Gia_ManHashFind.exit ], [ %10, %.lr.ph.split ]
  %indvars.iv.next = add nuw nsw i64 %indvars.iv, 1
  %108 = sext i32 %107 to i64
  %109 = icmp slt i64 %indvars.iv.next, %108
  br i1 %109, label %.lr.ph.split, label %.critedge, !llvm.loop !41

.critedge:                                        ; preds = %106, %.lr.ph, %1
  ret void
}